target datalayout = "e-m:e-p270:32:32-p271:32:32-p272:64:64-i64:64-i128:128-f80:128-n8:16:32:64-S128"
target triple = "x86_64-pc-linux-gnu"

%struct.RBasic = type { i64, i64 }
%struct.RString = type { %struct.RBasic, i64, %union.anon.33 }
%union.anon.33 = type { %struct.anon.34 }
%struct.anon.34 = type { ptr, %union.anon.35 }
%union.anon.35 = type { i64 }
%struct.anon.36 = type { [1 x i8] }

@.str.19 = private unnamed_addr constant [11 x i8] c"getlogin_r\00", align 1

; Function Attrs: inlinehint nounwind sspstrong willreturn memory(read) uwtable
define internal i64 @RB_FL_TEST_RAW(i64 noundef %0, i64 noundef %1) #5 {
  %3 = alloca i64, align 8
  %4 = alloca i64, align 8
  store i64 %0, ptr %3, align 8, !tbaa !35
  store i64 %1, ptr %4, align 8, !tbaa !35
  %5 = load i64, ptr %3, align 8, !tbaa !35
  %6 = inttoptr i64 %5 to ptr
  %7 = getelementptr inbounds nuw %struct.RBasic, ptr %6, i32 0, i32 0
  %8 = load i64, ptr %7, align 8, !tbaa !215
  %9 = load i64, ptr %4, align 8, !tbaa !35
  %10 = and i64 %8, %9
  ret i64 %10
}

; Function Attrs: inlinehint nounwind sspstrong willreturn memory(read) uwtable
define internal i64 @RSTRING_LEN(i64 noundef %0) #5 {
  %2 = alloca i64, align 8
  store i64 %0, ptr %2, align 8, !tbaa !35
  %3 = load i64, ptr %2, align 8, !tbaa !35
  %4 = inttoptr i64 %3 to ptr
  %5 = getelementptr inbounds nuw %struct.RString, ptr %4, i32 0, i32 1
  %6 = load i64, ptr %5, align 8, !tbaa !266
  ret i64 %6
}

; Function Attrs: inlinehint nounwind sspstrong willreturn memory(read) uwtable
define internal zeroext i1 @RB_FL_ANY_RAW(i64 noundef %0, i64 noundef %1) #5 {
  %3 = alloca i64, align 8
  %4 = alloca i64, align 8
  store i64 %0, ptr %3, align 8, !tbaa !35
  store i64 %1, ptr %4, align 8, !tbaa !35
  %5 = load i64, ptr %3, align 8, !tbaa !35
  %6 = load i64, ptr %4, align 8, !tbaa !35
  %7 = call i64 @RB_FL_TEST_RAW(i64 noundef %5, i64 noundef %6) #29
  %8 = icmp ne i64 %7, 0
  ret i1 %8
}

; Function Attrs: inlinehint nounwind sspstrong willreturn memory(read, argmem: readwrite) uwtable
define internal void @rbimpl_rstring_getmem(ptr dead_on_unwind noalias writable sret(%struct.RString) align 8 %0, i64 noundef %1) #21 {
  %3 = alloca i64, align 8
  store i64 %1, ptr %3, align 8, !tbaa !35
  %4 = load i64, ptr %3, align 8, !tbaa !35
  %5 = call zeroext i1 @RB_FL_ANY_RAW(i64 noundef %4, i64 noundef 8192) #29
  br i1 %5, label %6, label %9

6:                                                ; preds = %2
  %7 = load i64, ptr %3, align 8, !tbaa !35
  %8 = inttoptr i64 %7 to ptr
  call void @llvm.memcpy.p0.p0.i64(ptr align 8 %0, ptr align 8 %8, i64 40, i1 false), !tbaa.struct !274
  br label %20

9:                                                ; preds = %2
  %10 = load i64, ptr %3, align 8, !tbaa !35
  %11 = call i64 @RSTRING_LEN(i64 noundef %10) #29
  %12 = getelementptr inbounds nuw %struct.RString, ptr %0, i32 0, i32 1
  store i64 %11, ptr %12, align 8, !tbaa !266
  %13 = load i64, ptr %3, align 8, !tbaa !35
  %14 = inttoptr i64 %13 to ptr
  %15 = getelementptr inbounds nuw %struct.RString, ptr %14, i32 0, i32 2
  %16 = getelementptr inbounds nuw %struct.anon.36, ptr %15, i32 0, i32 0
  %17 = getelementptr inbounds [1 x i8], ptr %16, i64 0, i64 0
  %18 = getelementptr inbounds nuw %struct.RString, ptr %0, i32 0, i32 2
  %19 = getelementptr inbounds nuw %struct.anon.34, ptr %18, i32 0, i32 0
  store ptr %17, ptr %19, align 8, !tbaa !66
  br label %20

20:                                               ; preds = %9, %6
  ret void
}

; Function Attrs: inlinehint nounwind sspstrong uwtable
define internal zeroext i1 @login_not_found(i32 noundef %0) #1 {
  %2 = alloca i32, align 4
  store i32 %0, ptr %2, align 4, !tbaa !34
  %3 = load i32, ptr %2, align 4, !tbaa !34
  %4 = icmp eq i32 %3, 25
  br i1 %4, label %11, label %5

5:                                                ; preds = %1
  %6 = load i32, ptr %2, align 4, !tbaa !34
  %7 = icmp eq i32 %6, 6
  br i1 %7, label %11, label %8

8:                                                ; preds = %5
  %9 = load i32, ptr %2, align 4, !tbaa !34
  %10 = icmp eq i32 %9, 2
  br label %11

11:                                               ; preds = %8, %5, %1
  %12 = phi i1 [ true, %5 ], [ true, %1 ], [ %10, %8 ]
  ret i1 %12
}

; Function Attrs: inlinehint nounwind sspstrong uwtable
define internal ptr @RSTRING_PTR(i64 noundef %0) #1 {
  %2 = alloca i64, align 8
  %3 = alloca ptr, align 8
  %4 = alloca %struct.RString, align 8
  store i64 %0, ptr %2, align 8, !tbaa !35
  call void @llvm.lifetime.start.p0(i64 8, ptr %3) #27
  %5 = load i64, ptr %2, align 8, !tbaa !35
  call void @rbimpl_rstring_getmem(ptr dead_on_unwind writable sret(%struct.RString) align 8 %4, i64 noundef %5) #33
  %6 = getelementptr inbounds nuw %struct.RString, ptr %4, i32 0, i32 2
  %7 = getelementptr inbounds nuw %struct.anon.34, ptr %6, i32 0, i32 0
  %8 = load ptr, ptr %7, align 8, !tbaa !66
  store ptr %8, ptr %3, align 8, !tbaa !64
  %9 = load ptr, ptr %3, align 8, !tbaa !64
  call void @llvm.lifetime.end.p0(i64 8, ptr %3) #27
  ret ptr %9
}

; Function Attrs: nounwind sspstrong uwtable
define hidden i64 @rb_getlogin() #0 {
  %1 = alloca i64, align 8
  %2 = alloca ptr, align 8
  %3 = alloca i64, align 8
  %4 = alloca i64, align 8
  %5 = alloca i32, align 4
  %6 = alloca i32, align 4
  call void @llvm.lifetime.start.p0(i64 8, ptr %2) #27
  store ptr null, ptr %2, align 8, !tbaa !64
  call void @llvm.lifetime.start.p0(i64 8, ptr %3) #27
  %7 = call i64 @sysconf(i32 noundef 71) #27
  store i64 %7, ptr %3, align 8, !tbaa !35
  %8 = load i64, ptr %3, align 8, !tbaa !35
  %9 = icmp slt i64 %8, 0
  br i1 %9, label %10, label %11

10:                                               ; preds = %0
  store i64 256, ptr %3, align 8, !tbaa !35
  br label %11

11:                                               ; preds = %10, %0
  call void @llvm.lifetime.start.p0(i64 8, ptr %4) #27
  %12 = load i64, ptr %3, align 8, !tbaa !35
  %13 = call i64 @rb_str_buf_new(i64 noundef %12)
  store i64 %13, ptr %4, align 8, !tbaa !35
  %14 = load i64, ptr %4, align 8, !tbaa !35
  %15 = call ptr @RSTRING_PTR(i64 noundef %14)
  store ptr %15, ptr %2, align 8, !tbaa !64
  %16 = load i64, ptr %4, align 8, !tbaa !35
  %17 = call i64 @rb_str_capacity(i64 noundef %16) #29
  store i64 %17, ptr %3, align 8, !tbaa !35
  %18 = load i64, ptr %4, align 8, !tbaa !35
  %19 = load i64, ptr %3, align 8, !tbaa !35
  call void @rb_str_set_len(i64 noundef %18, i64 noundef %19)
  call void @llvm.lifetime.start.p0(i64 4, ptr %5) #27
  br label %20

20:                                               ; preds = %41, %11
  %21 = load ptr, ptr %2, align 8, !tbaa !64
  %22 = load i64, ptr %3, align 8, !tbaa !35
  %23 = call i32 @getlogin_r(ptr noundef %21, i64 noundef %22)
  store i32 %23, ptr %5, align 4, !tbaa !34
  %24 = icmp ne i32 %23, 0
  br i1 %24, label %25, label %48

25:                                               ; preds = %20
  %26 = load i32, ptr %5, align 4, !tbaa !34
  %27 = call zeroext i1 @login_not_found(i32 noundef %26)
  br i1 %27, label %28, label %31

28:                                               ; preds = %25
  %29 = load i64, ptr %4, align 8, !tbaa !35
  %30 = call i64 @rb_str_resize(i64 noundef %29, i64 noundef 0)
  store i64 4, ptr %1, align 8
  store i32 1, ptr %6, align 4
  br label %59

31:                                               ; preds = %25
  %32 = load i32, ptr %5, align 4, !tbaa !34
  %33 = icmp ne i32 %32, 34
  br i1 %33, label %37, label %34

34:                                               ; preds = %31
  %35 = load i64, ptr %3, align 8, !tbaa !35
  %36 = icmp sge i64 %35, 4096
  br i1 %36, label %37, label %41

37:                                               ; preds = %34, %31
  %38 = load i64, ptr %4, align 8, !tbaa !35
  %39 = call i64 @rb_str_resize(i64 noundef %38, i64 noundef 0)
  %40 = load i32, ptr %5, align 4, !tbaa !34
  call void @rb_syserr_fail(i32 noundef %40, ptr noundef @.str.19) #30
  unreachable

41:                                               ; preds = %34
  %42 = load i64, ptr %4, align 8, !tbaa !35
  %43 = load i64, ptr %3, align 8, !tbaa !35
  call void @rb_str_modify_expand(i64 noundef %42, i64 noundef %43)
  %44 = load i64, ptr %4, align 8, !tbaa !35
  %45 = call ptr @RSTRING_PTR(i64 noundef %44)
  store ptr %45, ptr %2, align 8, !tbaa !64
  %46 = load i64, ptr %4, align 8, !tbaa !35
  %47 = call i64 @rb_str_capacity(i64 noundef %46) #29
  store i64 %47, ptr %3, align 8, !tbaa !35
  br label %20, !llvm.loop !158

48:                                               ; preds = %20
  %49 = load ptr, ptr %2, align 8, !tbaa !64
  %50 = icmp eq ptr %49, null
  br i1 %50, label %51, label %54

51:                                               ; preds = %48
  %52 = load i64, ptr %4, align 8, !tbaa !35
  %53 = call i64 @rb_str_resize(i64 noundef %52, i64 noundef 0)
  store i64 4, ptr %1, align 8
  store i32 1, ptr %6, align 4
  br label %59

54:                                               ; preds = %48
  %55 = load i64, ptr %4, align 8, !tbaa !35
  %56 = load ptr, ptr %2, align 8, !tbaa !64
  %57 = call i64 @strlen(ptr noundef %56) #29
  call void @rb_str_set_len(i64 noundef %55, i64 noundef %57)
  %58 = load i64, ptr %4, align 8, !tbaa !35
  store i64 %58, ptr %1, align 8
  store i32 1, ptr %6, align 4
  br label %59

59:                                               ; preds = %54, %51, %28
  call void @llvm.lifetime.end.p0(i64 4, ptr %5) #27
  call void @llvm.lifetime.end.p0(i64 8, ptr %4) #27
  call void @llvm.lifetime.end.p0(i64 8, ptr %3) #27
  call void @llvm.lifetime.end.p0(i64 8, ptr %2) #27
  %60 = load i64, ptr %1, align 8
  ret i64 %60
}