; Function Attrs: nounwind sspstrong uwtable
define hidden i64 @rb_getlogin() local_unnamed_addr #1 {
  %1 = tail call i64 @sysconf(i32 noundef 71) #27
  %2 = icmp slt i64 %1, 0
  %spec.store.select = select i1 %2, i64 256, i64 %1
  %3 = tail call i64 @rb_str_buf_new(i64 noundef %spec.store.select) #27
  %4 = inttoptr i64 %3 to ptr
  %5 = load i64, ptr %4, align 8, !tbaa !69, !noalias !203
  %6 = and i64 %5, 8192
  %.not.i.i = icmp eq i64 %6, 0
  %7 = getelementptr inbounds nuw i8, ptr %4, i64 24
  br i1 %.not.i.i, label %RSTRING_PTR.exit, label %8

8:                                                ; preds = %0
  %.sroa.2.0.copyload.i = load ptr, ptr %7, align 8
  br label %RSTRING_PTR.exit

RSTRING_PTR.exit:                                 ; preds = %0, %8
  %.sroa.2.0.i = phi ptr [ %.sroa.2.0.copyload.i, %8 ], [ %7, %0 ]
  %9 = tail call i64 @rb_str_capacity(i64 noundef %3) #28
  tail call void @rb_str_set_len(i64 noundef %3, i64 noundef %9) #27
  br label %10

10:                                               ; preds = %RSTRING_PTR.exit30, %RSTRING_PTR.exit
  %.025 = phi i64 [ %9, %RSTRING_PTR.exit ], [ %22, %RSTRING_PTR.exit30 ]
  %.024 = phi ptr [ %.sroa.2.0.i, %RSTRING_PTR.exit ], [ %.sroa.2.0.i29, %RSTRING_PTR.exit30 ]
  %11 = tail call i32 @getlogin_r(ptr noundef %.024, i64 noundef %.025)
  switch i32 %11, label %login_not_found.exit [
    i32 0, label %23
    i32 25, label %12
    i32 6, label %12
    i32 2, label %12
  ]

12:                                               ; preds = %10, %10, %10
  %13 = tail call i64 @rb_str_resize(i64 noundef %3, i64 noundef 0) #27
  br label %29

login_not_found.exit:                             ; preds = %10
  %14 = icmp ne i32 %11, 34
  %15 = icmp sgt i64 %.025, 4095
  %or.cond = or i1 %15, %14
  br i1 %or.cond, label %16, label %18

16:                                               ; preds = %login_not_found.exit
  %17 = tail call i64 @rb_str_resize(i64 noundef %3, i64 noundef 0) #27
  tail call void @rb_syserr_fail(i32 noundef %11, ptr noundef nonnull @.str.19) #29
  unreachable

18:                                               ; preds = %login_not_found.exit
  tail call void @rb_str_modify_expand(i64 noundef %3, i64 noundef %.025) #27
  %19 = load i64, ptr %4, align 8, !tbaa !69, !noalias !206
  %20 = and i64 %19, 8192
  %.not.i.i27 = icmp eq i64 %20, 0
  br i1 %.not.i.i27, label %RSTRING_PTR.exit30, label %21

21:                                               ; preds = %18
  %.sroa.2.0.copyload.i28 = load ptr, ptr %7, align 8
  br label %RSTRING_PTR.exit30

RSTRING_PTR.exit30:                               ; preds = %18, %21
  %.sroa.2.0.i29 = phi ptr [ %.sroa.2.0.copyload.i28, %21 ], [ %7, %18 ]
  %22 = tail call i64 @rb_str_capacity(i64 noundef %3) #28
  br label %10, !llvm.loop !209

23:                                               ; preds = %10
  %24 = icmp eq ptr %.024, null
  br i1 %24, label %25, label %27

25:                                               ; preds = %23
  %26 = tail call i64 @rb_str_resize(i64 noundef %3, i64 noundef 0) #27
  br label %29

27:                                               ; preds = %23
  %28 = tail call i64 @strlen(ptr noundef nonnull dereferenceable(1) %.024) #28
  tail call void @rb_str_set_len(i64 noundef %3, i64 noundef %28) #27
  br label %29

29:                                               ; preds = %27, %25, %12
  %.0 = phi i64 [ 4, %12 ], [ 4, %25 ], [ %3, %27 ]
  ret i64 %.0
}